target datalayout = "e-m:e-p270:32:32-p271:32:32-p272:64:64-i64:64-i128:128-f80:128-n8:16:32:64-S128"
target triple = "x86_64-pc-linux-gnu"

@.str.1 = private unnamed_addr constant [12 x i8] c"androiddump\00", align 1
@.str.2 = private unnamed_addr constant [21 x i8] c"extcap/androiddump.c\00", align 1
@.str.109 = private unnamed_addr constant [6 x i8] c"%04zx\00", align 1
@.str.111 = private unnamed_addr constant [39 x i8] c"Error while sending <%s> to ADB daemon\00", align 1
@.str.112 = private unnamed_addr constant [62 x i8] c"Broken socket connection while fetching reply status for <%s>\00", align 1
@.str.114 = private unnamed_addr constant [54 x i8] c"Broken socket connection while reading reply for <%s>\00", align 1
@.str.115 = private unnamed_addr constant [5 x i8] c"OKAY\00", align 1
@.str.116 = private unnamed_addr constant [38 x i8] c"Error while receiving by ADB for <%s>\00", align 1
@.str.134 = private unnamed_addr constant [32 x i8] c"Error while sending <%s> to ADB\00", align 1
@__func__.adb_send_and_read = private unnamed_addr constant [18 x i8] c"adb_send_and_read\00", align 1

; Function Attrs: alwaysinline nounwind
define internal ptr @memcpy.inline(ptr noalias %0, ptr noalias %1, i64 %2) #9 {
  %4 = alloca ptr, align 8
  %5 = alloca ptr, align 8
  %6 = alloca i64, align 8
  store ptr %0, ptr %4, align 8
  store ptr %1, ptr %5, align 8
  store i64 %2, ptr %6, align 8
  %7 = load ptr, ptr %4, align 8
  %8 = load ptr, ptr %5, align 8
  %9 = load i64, ptr %6, align 8
  %10 = load ptr, ptr %4, align 8
  %11 = call i64 @llvm.objectsize.i64.p0(ptr %10, i1 false, i1 true, i1 true)
  %12 = call ptr @__memcpy_chk(ptr noundef %7, ptr noundef %8, i64 noundef %9, i64 noundef %11) #17
  ret ptr %12
}

; Function Attrs: null_pointer_is_valid sspstrong uwtable
define internal ptr @adb_send_and_read(i32 noundef %0, ptr noundef %1, ptr noundef %2, i32 noundef %3, ptr noundef %4) #0 {
  %6 = alloca ptr, align 8
  %7 = alloca i32, align 4
  %8 = alloca ptr, align 8
  %9 = alloca ptr, align 8
  %10 = alloca i32, align 4
  %11 = alloca ptr, align 8
  %12 = alloca i64, align 8
  %13 = alloca i64, align 8
  %14 = alloca [4 x i8], align 1
  %15 = alloca i64, align 8
  %16 = alloca i32, align 4
  store i32 %0, ptr %7, align 4
  store ptr %1, ptr %8, align 8
  store ptr %2, ptr %9, align 8
  store i32 %3, ptr %10, align 4
  store ptr %4, ptr %11, align 8
  call void @llvm.lifetime.start.p0(i64 8, ptr %12) #17
  call void @llvm.lifetime.start.p0(i64 8, ptr %13) #17
  call void @llvm.lifetime.start.p0(i64 4, ptr %14) #17
  call void @llvm.lifetime.start.p0(i64 8, ptr %15) #17
  %17 = load ptr, ptr %8, align 8
  %18 = call i64 @strlen(ptr noundef %17) #21
  store i64 %18, ptr %15, align 8
  %19 = load ptr, ptr %9, align 8
  %20 = load i32, ptr %10, align 4
  %21 = sext i32 %20 to i64
  %22 = load ptr, ptr %9, align 8
  %23 = call i64 @llvm.objectsize.i64.p0(ptr %22, i1 false, i1 true, i1 true)
  %24 = load i64, ptr %15, align 8
  %25 = call i32 (ptr, i64, i32, i64, ptr, ...) @__snprintf_chk(ptr noundef %19, i64 noundef %21, i32 noundef 2, i64 noundef %23, ptr noundef @.str.109, i64 noundef %24)
  %26 = load i32, ptr %7, align 4
  %27 = load ptr, ptr %9, align 8
  %28 = call i64 @send(i32 noundef %26, ptr noundef %27, i64 noundef 4, i32 noundef 0)
  store i64 %28, ptr %13, align 8
  %29 = load i64, ptr %13, align 8
  %30 = icmp slt i64 %29, 4
  br i1 %30, label %31, label %36

31:                                               ; preds = %5
  br label %32

32:                                               ; preds = %31
  %33 = load ptr, ptr %8, align 8
  call void (ptr, i32, ptr, i64, ptr, ptr, ...) @ws_log_full(ptr noundef @.str.1, i32 noundef 5, ptr noundef @.str.2, i64 noundef 763, ptr noundef @__func__.adb_send_and_read, ptr noundef @.str.111, ptr noundef %33)
  br label %34

34:                                               ; preds = %32
  br label %35

35:                                               ; preds = %34
  store ptr null, ptr %6, align 8
  store i32 1, ptr %16, align 4
  br label %142

36:                                               ; preds = %5
  %37 = load i32, ptr %7, align 4
  %38 = load ptr, ptr %8, align 8
  %39 = load i64, ptr %15, align 8
  %40 = trunc i64 %39 to i32
  %41 = sext i32 %40 to i64
  %42 = call i64 @send(i32 noundef %37, ptr noundef %38, i64 noundef %41, i32 noundef 0)
  store i64 %42, ptr %13, align 8
  %43 = load i64, ptr %13, align 8
  %44 = load i64, ptr %15, align 8
  %45 = icmp ne i64 %43, %44
  br i1 %45, label %46, label %56

46:                                               ; preds = %36
  br label %47

47:                                               ; preds = %46
  %48 = load ptr, ptr %8, align 8
  call void (ptr, i32, ptr, i64, ptr, ptr, ...) @ws_log_full(ptr noundef @.str.1, i32 noundef 5, ptr noundef @.str.2, i64 noundef 769, ptr noundef @__func__.adb_send_and_read, ptr noundef @.str.134, ptr noundef %48)
  br label %49

49:                                               ; preds = %47
  br label %50

50:                                               ; preds = %49
  %51 = load ptr, ptr %11, align 8
  %52 = icmp ne ptr %51, null
  br i1 %52, label %53, label %55

53:                                               ; preds = %50
  %54 = load ptr, ptr %11, align 8
  store i64 0, ptr %54, align 8
  br label %55

55:                                               ; preds = %53, %50
  store ptr null, ptr %6, align 8
  store i32 1, ptr %16, align 4
  br label %142

56:                                               ; preds = %36
  store i64 0, ptr %12, align 8
  br label %57

57:                                               ; preds = %79, %56
  %58 = load i64, ptr %12, align 8
  %59 = icmp slt i64 %58, 4
  br i1 %59, label %60, label %83

60:                                               ; preds = %57
  %61 = load i32, ptr %7, align 4
  %62 = load ptr, ptr %9, align 8
  %63 = load i64, ptr %12, align 8
  %64 = getelementptr i8, ptr %62, i64 %63
  %65 = load i32, ptr %10, align 4
  %66 = sext i32 %65 to i64
  %67 = load i64, ptr %12, align 8
  %68 = sub i64 %66, %67
  %69 = trunc i64 %68 to i32
  %70 = sext i32 %69 to i64
  %71 = call i64 @recv(i32 noundef %61, ptr noundef %64, i64 noundef %70, i32 noundef 0)
  store i64 %71, ptr %13, align 8
  %72 = load i64, ptr %13, align 8
  %73 = icmp sle i64 %72, 0
  br i1 %73, label %74, label %79

74:                                               ; preds = %60
  br label %75

75:                                               ; preds = %74
  %76 = load ptr, ptr %8, align 8
  call void (ptr, i32, ptr, i64, ptr, ptr, ...) @ws_log_full(ptr noundef @.str.1, i32 noundef 5, ptr noundef @.str.2, i64 noundef 780, ptr noundef @__func__.adb_send_and_read, ptr noundef @.str.112, ptr noundef %76)
  br label %77

77:                                               ; preds = %75
  br label %78

78:                                               ; preds = %77
  store ptr null, ptr %6, align 8
  store i32 1, ptr %16, align 4
  br label %142

79:                                               ; preds = %60
  %80 = load i64, ptr %13, align 8
  %81 = load i64, ptr %12, align 8
  %82 = add i64 %81, %80
  store i64 %82, ptr %12, align 8
  br label %57, !llvm.loop !57

83:                                               ; preds = %57
  %84 = getelementptr inbounds [4 x i8], ptr %14, i64 0, i64 0
  %85 = load ptr, ptr %9, align 8
  %86 = call ptr @memcpy.inline(ptr noundef %84, ptr noundef %85, i64 noundef 4) #17
  br label %87

87:                                               ; preds = %114, %83
  %88 = load i64, ptr %13, align 8
  %89 = icmp sgt i64 %88, 0
  br i1 %89, label %90, label %118

90:                                               ; preds = %87
  %91 = load i32, ptr %7, align 4
  %92 = load ptr, ptr %9, align 8
  %93 = load i64, ptr %12, align 8
  %94 = getelementptr i8, ptr %92, i64 %93
  %95 = load i32, ptr %10, align 4
  %96 = sext i32 %95 to i64
  %97 = load i64, ptr %12, align 8
  %98 = sub i64 %96, %97
  %99 = trunc i64 %98 to i32
  %100 = sext i32 %99 to i64
  %101 = call i64 @recv(i32 noundef %91, ptr noundef %94, i64 noundef %100, i32 noundef 0)
  store i64 %101, ptr %13, align 8
  %102 = load i64, ptr %13, align 8
  %103 = icmp slt i64 %102, 0
  br i1 %103, label %104, label %109

104:                                              ; preds = %90
  br label %105

105:                                              ; preds = %104
  %106 = load ptr, ptr %8, align 8
  call void (ptr, i32, ptr, i64, ptr, ptr, ...) @ws_log_full(ptr noundef @.str.1, i32 noundef 5, ptr noundef @.str.2, i64 noundef 794, ptr noundef @__func__.adb_send_and_read, ptr noundef @.str.114, ptr noundef %106)
  br label %107

107:                                              ; preds = %105
  br label %108

108:                                              ; preds = %107
  store ptr null, ptr %6, align 8
  store i32 1, ptr %16, align 4
  br label %142

109:                                              ; preds = %90
  %110 = load i64, ptr %13, align 8
  %111 = icmp eq i64 %110, 0
  br i1 %111, label %112, label %113

112:                                              ; preds = %109
  br label %118

113:                                              ; preds = %109
  br label %114

114:                                              ; preds = %113
  %115 = load i64, ptr %13, align 8
  %116 = load i64, ptr %12, align 8
  %117 = add i64 %116, %115
  store i64 %117, ptr %12, align 8
  br label %87, !llvm.loop !58

118:                                              ; preds = %112, %87
  %119 = load ptr, ptr %11, align 8
  %120 = icmp ne ptr %119, null
  br i1 %120, label %121, label %125

121:                                              ; preds = %118
  %122 = load i64, ptr %12, align 8
  %123 = sub i64 %122, 4
  %124 = load ptr, ptr %11, align 8
  store i64 %123, ptr %124, align 8
  br label %125

125:                                              ; preds = %121, %118
  %126 = getelementptr inbounds [4 x i8], ptr %14, i64 0, i64 0
  %127 = call i32 @memcmp(ptr noundef %126, ptr noundef @.str.115, i64 noundef 4) #21
  %128 = icmp ne i32 %127, 0
  br i1 %128, label %129, label %139

129:                                              ; preds = %125
  br label %130

130:                                              ; preds = %129
  %131 = load ptr, ptr %8, align 8
  call void (ptr, i32, ptr, i64, ptr, ptr, ...) @ws_log_full(ptr noundef @.str.1, i32 noundef 5, ptr noundef @.str.2, i64 noundef 808, ptr noundef @__func__.adb_send_and_read, ptr noundef @.str.116, ptr noundef %131)
  br label %132

132:                                              ; preds = %130
  br label %133

133:                                              ; preds = %132
  %134 = load ptr, ptr %11, align 8
  %135 = icmp ne ptr %134, null
  br i1 %135, label %136, label %138

136:                                              ; preds = %133
  %137 = load ptr, ptr %11, align 8
  store i64 0, ptr %137, align 8
  br label %138

138:                                              ; preds = %136, %133
  store ptr null, ptr %6, align 8
  store i32 1, ptr %16, align 4
  br label %142

139:                                              ; preds = %125
  %140 = load ptr, ptr %9, align 8
  %141 = getelementptr i8, ptr %140, i64 4
  store ptr %141, ptr %6, align 8
  store i32 1, ptr %16, align 4
  br label %142

142:                                              ; preds = %139, %138, %108, %78, %55, %35
  call void @llvm.lifetime.end.p0(i64 8, ptr %15) #17
  call void @llvm.lifetime.end.p0(i64 4, ptr %14) #17
  call void @llvm.lifetime.end.p0(i64 8, ptr %13) #17
  call void @llvm.lifetime.end.p0(i64 8, ptr %12) #17
  %143 = load ptr, ptr %6, align 8
  ret ptr %143
}