; Function Attrs: null_pointer_is_valid sspstrong uwtable
define internal fastcc noundef ptr @adb_send_and_read(i32 noundef range(i32 0, -1) %0, ptr noundef %1, ptr noundef %2, ptr noundef writeonly captures(address_is_null) %3) unnamed_addr #0 {
  %5 = tail call i64 @strlen(ptr noundef %1) #22
  %6 = tail call i32 (ptr, i64, i32, i64, ptr, ...) @__snprintf_chk(ptr noundef %2, i64 noundef 65535, i32 noundef 2, i64 noundef -1, ptr noundef nonnull @.str.109, i64 noundef %5)
  %7 = tail call i64 @send(i32 noundef %0, ptr noundef %2, i64 noundef 4, i32 noundef 0)
  %8 = icmp slt i64 %7, 4
  br i1 %8, label %9, label %10

9:                                                ; preds = %4
  tail call void (ptr, i32, ptr, i64, ptr, ptr, ...) @ws_log_full(ptr noundef nonnull @.str.1, i32 noundef 5, ptr noundef nonnull @.str.2, i64 noundef 763, ptr noundef nonnull @__func__.adb_send_and_read, ptr noundef nonnull @.str.111, ptr noundef %1)
  br label %47

10:                                               ; preds = %4
  %sext = shl i64 %5, 32
  %11 = ashr exact i64 %sext, 32
  %12 = tail call i64 @send(i32 noundef %0, ptr noundef %1, i64 noundef %11, i32 noundef 0)
  %.not = icmp eq i64 %12, %5
  br i1 %.not, label %.preheader, label %13

13:                                               ; preds = %10
  tail call void (ptr, i32, ptr, i64, ptr, ptr, ...) @ws_log_full(ptr noundef nonnull @.str.1, i32 noundef 5, ptr noundef nonnull @.str.2, i64 noundef 769, ptr noundef nonnull @__func__.adb_send_and_read, ptr noundef nonnull @.str.134, ptr noundef %1)
  %.not58 = icmp eq ptr %3, null
  br i1 %.not58, label %47, label %14

14:                                               ; preds = %13
  store i64 0, ptr %3, align 8
  br label %47

15:                                               ; preds = %.preheader
  %16 = add i64 %21, %.04762
  %17 = icmp slt i64 %16, 4
  br i1 %17, label %.preheader, label %24, !llvm.loop !60

.preheader:                                       ; preds = %10, %15
  %.04762 = phi i64 [ %16, %15 ], [ 0, %10 ]
  %18 = getelementptr i8, ptr %2, i64 %.04762
  %19 = shl i64 %.04762, 32
  %sext57 = sub i64 281470681743360, %19
  %20 = ashr exact i64 %sext57, 32
  %21 = tail call i64 @recv(i32 noundef %0, ptr noundef %18, i64 noundef %20, i32 noundef 0)
  %22 = icmp slt i64 %21, 1
  br i1 %22, label %23, label %15

23:                                               ; preds = %.preheader
  tail call void (ptr, i32, ptr, i64, ptr, ptr, ...) @ws_log_full(ptr noundef nonnull @.str.1, i32 noundef 5, ptr noundef nonnull @.str.2, i64 noundef 780, ptr noundef nonnull @__func__.adb_send_and_read, ptr noundef nonnull @.str.112, ptr noundef %1)
  br label %47

24:                                               ; preds = %15
  %25 = load i32, ptr %2, align 1
  %26 = getelementptr i8, ptr %2, i64 %16
  %27 = shl i64 %16, 32
  %sext542 = sub i64 281470681743360, %27
  %28 = ashr exact i64 %sext542, 32
  %29 = tail call i64 @recv(i32 noundef %0, ptr noundef %26, i64 noundef %28, i32 noundef 0)
  %30 = icmp slt i64 %29, 0
  br i1 %30, label %._crit_edge, label %.lr.ph

31:                                               ; preds = %.lr.ph
  %32 = add i64 %38, %.148633
  %33 = getelementptr i8, ptr %2, i64 %32
  %34 = shl i64 %32, 32
  %sext54 = sub i64 281470681743360, %34
  %35 = ashr exact i64 %sext54, 32
  %36 = tail call i64 @recv(i32 noundef %0, ptr noundef %33, i64 noundef %35, i32 noundef 0)
  %37 = icmp slt i64 %36, 0
  br i1 %37, label %._crit_edge, label %.lr.ph

._crit_edge:                                      ; preds = %31, %24
  tail call void (ptr, i32, ptr, i64, ptr, ptr, ...) @ws_log_full(ptr noundef nonnull @.str.1, i32 noundef 5, ptr noundef nonnull @.str.2, i64 noundef 794, ptr noundef nonnull @__func__.adb_send_and_read, ptr noundef nonnull @.str.114, ptr noundef %1)
  br label %47

.lr.ph:                                           ; preds = %24, %31
  %38 = phi i64 [ %36, %31 ], [ %29, %24 ]
  %.148633 = phi i64 [ %32, %31 ], [ %16, %24 ]
  %39 = icmp eq i64 %38, 0
  br i1 %39, label %split, label %31

split:                                            ; preds = %.lr.ph
  %.not55 = icmp eq ptr %3, null
  br i1 %.not55, label %42, label %40

40:                                               ; preds = %split
  %41 = add i64 %.148633, -4
  store i64 %41, ptr %3, align 8
  br label %42

42:                                               ; preds = %40, %split
  %.not4 = icmp eq i32 %25, 1497451343
  br i1 %.not4, label %45, label %43

43:                                               ; preds = %42
  tail call void (ptr, i32, ptr, i64, ptr, ptr, ...) @ws_log_full(ptr noundef nonnull @.str.1, i32 noundef 5, ptr noundef nonnull @.str.2, i64 noundef 808, ptr noundef nonnull @__func__.adb_send_and_read, ptr noundef nonnull @.str.116, ptr noundef %1)
  br i1 %.not55, label %47, label %44

44:                                               ; preds = %43
  store i64 0, ptr %3, align 8
  br label %47

45:                                               ; preds = %42
  %46 = getelementptr i8, ptr %2, i64 4
  br label %47

47:                                               ; preds = %43, %44, %13, %14, %45, %._crit_edge, %23, %9
  %.0 = phi ptr [ null, %9 ], [ null, %23 ], [ null, %._crit_edge ], [ %46, %45 ], [ null, %14 ], [ null, %13 ], [ null, %44 ], [ null, %43 ]
  ret ptr %.0
}